Certificate:
    Data:
        Version: 3 (0x2)
        Serial Number:
            03:ca:2c:7c:bd:e2:85:d0:d7:cd:0e:5f:b0:96:e0:13:e2:83:51:5c
        Signature Algorithm: sha256WithRSAEncryption
        Issuer: CN=SelimSoufargi
        Validity
            Not Before: Feb 10 13:27:40 2025 GMT
            Not After : Mar 12 13:27:40 2025 GMT
        Subject: CN=SelimSoufargi
        Subject Public Key Info:
            Public Key Algorithm: rsaEncryption
                Public-Key: (2048 bit)
                Modulus:
                    00:be:dd:05:0c:99:ec:95:4d:78:a8:9d:c6:b2:04:
                    cb:96:5b:24:d4:08:f8:7b:d5:c6:e0:01:87:a7:93:
                    2c:51:d1:a7:b9:e7:c2:ef:2d:88:d0:89:4f:6a:bf:
                    cb:cf:53:6c:b4:4c:73:9c:60:e5:a0:a2:06:15:15:
                    23:3f:a5:58:e1:4c:18:f6:7b:33:b8:34:5f:9f:53:
                    9a:b3:b2:77:33:cb:4a:15:a1:83:79:d9:d2:c6:6c:
                    dc:bb:ac:6d:dd:e1:66:73:15:60:e1:98:fa:fd:9c:
                    03:47:63:de:4f:a4:20:ca:dc:cd:3e:1a:6f:c7:e8:
                    f6:46:bb:75:b5:f6:aa:3a:1a:13:b9:88:3d:dd:15:
                    46:a1:92:b4:05:d2:af:1f:57:78:67:08:2e:46:1f:
                    a3:eb:08:cb:c4:74:c8:b7:55:41:84:03:7a:f0:0f:
                    51:02:f8:f1:70:86:de:52:60:2f:2c:39:ea:45:25:
                    08:55:fb:bf:f7:a7:b6:26:4d:6b:f8:77:fe:51:b1:
                    c5:b5:dd:ca:32:56:33:33:a6:06:de:81:84:26:1e:
                    31:d3:93:74:09:9a:8b:03:fd:f3:7d:d4:cd:c8:d7:
                    1b:b6:f0:09:a9:69:26:c1:b5:8a:01:fb:a8:9e:17:
                    09:52:1f:ec:2c:b2:e7:56:20:82:47:b6:ac:3d:7d:
                    e7:4f
                Exponent: 65537 (0x10001)
        X509v3 extensions:
            X509v3 Subject Key Identifier: 
                3A:E4:EC:0B:5F:95:D8:43:E4:34:1C:31:D2:06:85:8A:CA:56:6D:FF
            X509v3 Authority Key Identifier: 
                3A:E4:EC:0B:5F:95:D8:43:E4:34:1C:31:D2:06:85:8A:CA:56:6D:FF
            X509v3 Basic Constraints: critical
                CA:TRUE
    Signature Algorithm: sha256WithRSAEncryption
    Signature Value:
        62:c2:82:44:48:80:64:36:ee:16:a5:cb:00:60:05:1c:be:b8:
        5c:8a:82:40:20:41:97:dc:04:d8:19:0f:48:c4:bc:65:a1:cd:
        b1:4c:6a:5b:f6:0a:cd:a1:42:b2:70:54:b4:40:ea:a6:ab:fa:
        91:af:1f:95:c6:e1:0a:14:43:5e:05:65:cf:a8:84:98:32:e8:
        7a:22:cf:86:ef:d5:6e:78:77:3a:92:e5:19:0d:66:3e:ab:44:
        b8:d5:97:d6:8d:b6:64:12:40:1c:c2:b6:8a:50:9a:60:dc:3c:
        48:ae:ae:15:43:20:9d:5d:fd:9a:67:0f:8b:c2:3b:15:09:e1:
        35:80:be:16:ba:1d:02:90:34:ac:0b:a8:12:b8:27:0b:10:5c:
        28:64:57:d5:43:bc:26:48:76:35:13:9f:13:2f:5b:9a:75:66:
        d9:e3:d9:28:43:3c:ac:64:23:64:05:75:91:b8:2c:f5:70:b4:
        80:fc:8b:d6:75:fb:3a:5a:a3:67:c6:0c:d6:c4:c1:11:e4:b7:
        bc:77:bd:25:ce:e0:22:3b:d7:1a:51:61:74:b0:75:e3:10:ea:
        99:2c:21:22:c3:be:95:36:c5:4d:fb:e0:d9:57:6f:39:d7:cf:
        88:95:9a:a2:68:d4:81:49:24:b0:04:2b:72:aa:0b:17:d3:f9:
        1a:b2:f6:3c
-----BEGIN CERTIFICATE-----
MIIDETCCAfmgAwIBAgIUA8osfL3ihdDXzQ5fsJbgE+KDUVwwDQYJKoZIhvcNAQEL
BQAwGDEWMBQGA1UEAwwNU2VsaW1Tb3VmYXJnaTAeFw0yNTAyMTAxMzI3NDBaFw0y
NTAzMTIxMzI3NDBaMBgxFjAUBgNVBAMMDVNlbGltU291ZmFyZ2kwggEiMA0GCSqG
SIb3DQEBAQUAA4IBDwAwggEKAoIBAQC+3QUMmeyVTXioncayBMuWWyTUCPh71cbg
AYenkyxR0ae558LvLYjQiU9qv8vPU2y0THOcYOWgogYVFSM/pVjhTBj2ezO4NF+f
U5qzsnczy0oVoYN52dLGbNy7rG3d4WZzFWDhmPr9nANHY95PpCDK3M0+Gm/H6PZG
u3W19qo6GhO5iD3dFUahkrQF0q8fV3hnCC5GH6PrCMvEdMi3VUGEA3rwD1EC+PFw
ht5SYC8sOepFJQhV+7/3p7YmTWv4d/5RscW13coyVjMzpgbegYQmHjHTk3QJmosD
/fN91M3I1xu28AmpaSbBtYoB+6ieFwlSH+wssudWIIJHtqw9fedPAgMBAAGjUzBR
MB0GA1UdDgQWBBQ65OwLX5XYQ+Q0HDHSBoWKylZt/zAfBgNVHSMEGDAWgBQ65OwL
X5XYQ+Q0HDHSBoWKylZt/zAPBgNVHRMBAf8EBTADAQH/MA0GCSqGSIb3DQEBCwUA
A4IBAQBiwoJESIBkNu4WpcsAYAUcvrhcioJAIEGX3ATYGQ9IxLxloc2xTGpb9grN
oUKycFS0QOqmq/qRrx+VxuEKFENeBWXPqISYMuh6Is+G79VueHc6kuUZDWY+q0S4
1ZfWjbZkEkAcwraKUJpg3DxIrq4VQyCdXf2aZw+LwjsVCeE1gL4Wuh0CkDSsC6gS
uCcLEFwoZFfVQ7wmSHY1E58TL1uadWbZ49koQzysZCNkBXWRuCz1cLSA/IvWdfs6
WqNnxgzWxMER5Le8d70lzuAiO9caUWF0sHXjEOqZLCEiw76VNsVN++DZV28518+I
lZqiaNSBSSSwBCtyqgsX0/kasvY8
-----END CERTIFICATE-----
